target datalayout = "e-m:e-p270:32:32-p271:32:32-p272:64:64-i64:64-i128:128-f80:128-n8:16:32:64-S128"
target triple = "x86_64-pc-linux-gnu"

%struct.rb_data_type_struct = type { ptr, %struct.anon, ptr, ptr, i64 }
%struct.anon = type { ptr, ptr, ptr, ptr, [1 x ptr] }
%struct.RTypedData = type { %struct.RBasic, ptr, i64, ptr }
%struct.RBasic = type { i64, i64 }

@cEC_GROUP = internal global i64 0, align 8
@eEC_GROUP = internal global i64 0, align 8
@rb_eRuntimeError = external global i64, align 8
@ossl_ec_group_type = internal constant %struct.rb_data_type_struct { ptr @.str.61, %struct.anon { ptr null, ptr @ossl_ec_group_free, ptr null, ptr null, [1 x ptr] zeroinitializer }, ptr null, ptr null, i64 33 }, align 8
@ossl_evp_pkey_type = external constant %struct.rb_data_type_struct, align 8
@.str.66 = private unnamed_addr constant [25 x i8] c"PKEY wasn't initialized!\00", align 1
@.str.67 = private unnamed_addr constant [23 x i8] c"THIS IS NOT A EC PKEY!\00", align 1
@.str.68 = private unnamed_addr constant [13 x i8] c"EC_GROUP_dup\00", align 1

; Function Attrs: nounwind sspstrong uwtable
define internal i64 @ossl_ec_group_alloc(i64 noundef %0) #0 {
  %2 = alloca i64, align 8
  store i64 %0, ptr %2, align 8, !tbaa !6
  %3 = load i64, ptr %2, align 8, !tbaa !6
  %4 = call i64 @rb_data_typed_object_wrap(i64 noundef %3, ptr noundef null, ptr noundef @ossl_ec_group_type)
  ret i64 %4
}

; Function Attrs: nounwind sspstrong uwtable
define internal i64 @ec_group_new(ptr noundef %0) #0 {
  %2 = alloca ptr, align 8
  %3 = alloca i64, align 8
  %4 = alloca ptr, align 8
  store ptr %0, ptr %2, align 8, !tbaa !33
  call void @llvm.lifetime.start.p0(i64 8, ptr %3) #19
  call void @llvm.lifetime.start.p0(i64 8, ptr %4) #19
  %5 = load i64, ptr @cEC_GROUP, align 8, !tbaa !6
  %6 = call i64 @ossl_ec_group_alloc(i64 noundef %5)
  store i64 %6, ptr %3, align 8, !tbaa !6
  %7 = load ptr, ptr %2, align 8, !tbaa !33
  %8 = call ptr @EC_GROUP_dup(ptr noundef %7)
  store ptr %8, ptr %4, align 8, !tbaa !33
  %9 = load ptr, ptr %4, align 8, !tbaa !33
  %10 = icmp ne ptr %9, null
  br i1 %10, label %13, label %11

11:                                               ; preds = %1
  %12 = load i64, ptr @eEC_GROUP, align 8, !tbaa !6
  call void (i64, ptr, ...) @ossl_raise(i64 noundef %12, ptr noundef @.str.68) #20
  unreachable

13:                                               ; preds = %1
  %14 = load ptr, ptr %4, align 8, !tbaa !33
  %15 = load i64, ptr %3, align 8, !tbaa !6
  %16 = inttoptr i64 %15 to ptr
  %17 = getelementptr inbounds nuw %struct.RTypedData, ptr %16, i32 0, i32 3
  store ptr %14, ptr %17, align 8, !tbaa !25
  %18 = load i64, ptr %3, align 8, !tbaa !6
  call void @llvm.lifetime.end.p0(i64 8, ptr %4) #19
  call void @llvm.lifetime.end.p0(i64 8, ptr %3) #19
  ret i64 %18
}

; Function Attrs: nounwind sspstrong uwtable
define internal i64 @ossl_ec_key_get_group(i64 noundef %0) #0 {
  %2 = alloca i64, align 8
  %3 = alloca i64, align 8
  %4 = alloca ptr, align 8
  %5 = alloca ptr, align 8
  %6 = alloca ptr, align 8
  %7 = alloca i32, align 4
  store i64 %0, ptr %3, align 8, !tbaa !6
  call void @llvm.lifetime.start.p0(i64 8, ptr %4) #19
  call void @llvm.lifetime.start.p0(i64 8, ptr %5) #19
  br label %8

8:                                                ; preds = %1
  call void @llvm.lifetime.start.p0(i64 8, ptr %6) #19
  br label %9

9:                                                ; preds = %8
  br label %10

10:                                               ; preds = %9
  %11 = load i64, ptr %3, align 8, !tbaa !6
  %12 = call ptr @rb_check_typeddata(i64 noundef %11, ptr noundef @ossl_evp_pkey_type)
  store ptr %12, ptr %6, align 8, !tbaa !23
  %13 = load ptr, ptr %6, align 8, !tbaa !23
  %14 = icmp ne ptr %13, null
  br i1 %14, label %17, label %15

15:                                               ; preds = %10
  %16 = load i64, ptr @rb_eRuntimeError, align 8, !tbaa !6
  call void (i64, ptr, ...) @rb_raise(i64 noundef %16, ptr noundef @.str.66) #20
  unreachable

17:                                               ; preds = %10
  br label %18

18:                                               ; preds = %17
  br label %19

19:                                               ; preds = %18
  %20 = load ptr, ptr %6, align 8, !tbaa !23
  %21 = call i32 @EVP_PKEY_get_base_id(ptr noundef %20)
  %22 = icmp ne i32 %21, 408
  br i1 %22, label %23, label %25

23:                                               ; preds = %19
  %24 = load i64, ptr @rb_eRuntimeError, align 8, !tbaa !6
  call void (i64, ptr, ...) @ossl_raise(i64 noundef %24, ptr noundef @.str.67) #20
  unreachable

25:                                               ; preds = %19
  br label %26

26:                                               ; preds = %25
  br label %27

27:                                               ; preds = %26
  %28 = load ptr, ptr %6, align 8, !tbaa !23
  %29 = call ptr @EVP_PKEY_get0_EC_KEY(ptr noundef %28)
  store ptr %29, ptr %4, align 8, !tbaa !21
  call void @llvm.lifetime.end.p0(i64 8, ptr %6) #19
  br label %30

30:                                               ; preds = %27
  br label %31

31:                                               ; preds = %30
  %32 = load ptr, ptr %4, align 8, !tbaa !21
  %33 = call ptr @EC_KEY_get0_group(ptr noundef %32)
  store ptr %33, ptr %5, align 8, !tbaa !33
  %34 = load ptr, ptr %5, align 8, !tbaa !33
  %35 = icmp ne ptr %34, null
  br i1 %35, label %37, label %36

36:                                               ; preds = %31
  store i64 4, ptr %2, align 8
  store i32 1, ptr %7, align 4
  br label %40

37:                                               ; preds = %31
  %38 = load ptr, ptr %5, align 8, !tbaa !33
  %39 = call i64 @ec_group_new(ptr noundef %38)
  store i64 %39, ptr %2, align 8
  store i32 1, ptr %7, align 4
  br label %40

40:                                               ; preds = %37, %36
  call void @llvm.lifetime.end.p0(i64 8, ptr %5) #19
  call void @llvm.lifetime.end.p0(i64 8, ptr %4) #19
  %41 = load i64, ptr %2, align 8
  ret i64 %41
}