; Function Attrs: nounwind sspstrong uwtable
define internal i64 @ossl_ec_key_get_group(i64 noundef %0) #0 {
  %2 = tail call ptr @rb_check_typeddata(i64 noundef %0, ptr noundef nonnull @ossl_evp_pkey_type) #7
  %.not = icmp eq ptr %2, null
  br i1 %.not, label %3, label %5

3:                                                ; preds = %1
  %4 = load i64, ptr @rb_eRuntimeError, align 8, !tbaa !6
  tail call void (i64, ptr, ...) @rb_raise(i64 noundef %4, ptr noundef nonnull @.str.66) #9
  unreachable

5:                                                ; preds = %1
  %6 = tail call i32 @EVP_PKEY_get_base_id(ptr noundef nonnull %2) #7
  %.not9 = icmp eq i32 %6, 408
  br i1 %.not9, label %9, label %7

7:                                                ; preds = %5
  %8 = load i64, ptr @rb_eRuntimeError, align 8, !tbaa !6
  tail call void (i64, ptr, ...) @ossl_raise(i64 noundef %8, ptr noundef nonnull @.str.67) #9
  unreachable

9:                                                ; preds = %5
  %10 = tail call ptr @EVP_PKEY_get0_EC_KEY(ptr noundef nonnull %2) #7
  %11 = tail call ptr @EC_KEY_get0_group(ptr noundef %10) #7
  %.not10 = icmp eq ptr %11, null
  br i1 %.not10, label %20, label %12

12:                                               ; preds = %9
  %13 = load i64, ptr @cEC_GROUP, align 8, !tbaa !6
  %14 = tail call i64 @rb_data_typed_object_wrap(i64 noundef %13, ptr noundef null, ptr noundef nonnull @ossl_ec_group_type) #7
  %15 = tail call ptr @EC_GROUP_dup(ptr noundef nonnull %11) #7
  %.not.i = icmp eq ptr %15, null
  br i1 %.not.i, label %16, label %ec_group_new.exit

16:                                               ; preds = %12
  %17 = load i64, ptr @eEC_GROUP, align 8, !tbaa !6
  tail call void (i64, ptr, ...) @ossl_raise(i64 noundef %17, ptr noundef nonnull @.str.68) #9
  unreachable

ec_group_new.exit:                                ; preds = %12
  %18 = inttoptr i64 %14 to ptr
  %19 = getelementptr inbounds nuw i8, ptr %18, i64 32
  store ptr %15, ptr %19, align 8, !tbaa !19
  br label %20

20:                                               ; preds = %9, %ec_group_new.exit
  %.0 = phi i64 [ %14, %ec_group_new.exit ], [ 4, %9 ]
  ret i64 %.0
}